; ModuleID = '27/1340.c'
source_filename = "27/1340.c"
target datalayout = "e-m:e-p270:32:32-p271:32:32-p272:64:64-i64:64-f80:128-n8:16:32:64-S128"
target triple = "x86_64-pc-linux-gnu"

@.str = private unnamed_addr constant [3 x i8] c"%d\00", align 1
@.str.1 = private unnamed_addr constant [10 x i8] c"%lf%lf%lf\00", align 1
@.str.2 = private unnamed_addr constant [19 x i8] c"x1=%.5lf;x2=%.5lf\0A\00", align 1
@.str.3 = private unnamed_addr constant [13 x i8] c"x1=x2=%.5lf\0A\00", align 1
@.str.4 = private unnamed_addr constant [33 x i8] c"x1=%.5lf+%.5lfi;x2=%.5lf-%.5lfi\0A\00", align 1

; Function Attrs: noinline nounwind uwtable
define dso_local i32 @main(i32 %0, i8** %1) #0 {
  %3 = alloca i32, align 4
  %4 = alloca i32, align 4
  %5 = alloca i8**, align 8
  %6 = alloca i32, align 4
  %7 = alloca i32, align 4
  %8 = alloca [100 x double], align 16
  %9 = alloca [100 x double], align 16
  %10 = alloca [100 x double], align 16
  %11 = alloca [100 x double], align 16
  %12 = alloca [100 x double], align 16
  %13 = alloca [100 x double], align 16
  store i32 0, i32* %3, align 4
  store i32 %0, i32* %4, align 4
  store i8** %1, i8*** %5, align 8
  %14 = call i32 (i8*, ...) @__isoc99_scanf(i8* getelementptr inbounds ([3 x i8], [3 x i8]* @.str, i64 0, i64 0), i32* %6)
  store i32 0, i32* %7, align 4
  br label %15

15:                                               ; preds = %30, %2
  %16 = load i32, i32* %7, align 4
  %17 = load i32, i32* %6, align 4
  %18 = icmp slt i32 %16, %17
  br i1 %18, label %19, label %33

19:                                               ; preds = %15
  %20 = load i32, i32* %7, align 4
  %21 = sext i32 %20 to i64
  %22 = getelementptr inbounds [100 x double], [100 x double]* %8, i64 0, i64 %21
  %23 = load i32, i32* %7, align 4
  %24 = sext i32 %23 to i64
  %25 = getelementptr inbounds [100 x double], [100 x double]* %9, i64 0, i64 %24
  %26 = load i32, i32* %7, align 4
  %27 = sext i32 %26 to i64
  %28 = getelementptr inbounds [100 x double], [100 x double]* %10, i64 0, i64 %27
  %29 = call i32 (i8*, ...) @__isoc99_scanf(i8* getelementptr inbounds ([10 x i8], [10 x i8]* @.str.1, i64 0, i64 0), double* %22, double* %25, double* %28)
  br label %30

30:                                               ; preds = %19
  %31 = load i32, i32* %7, align 4
  %32 = add nsw i32 %31, 1
  store i32 %32, i32* %7, align 4
  br label %15

33:                                               ; preds = %15
  store i32 0, i32* %7, align 4
  br label %34

34:                                               ; preds = %309, %33
  %35 = load i32, i32* %7, align 4
  %36 = load i32, i32* %6, align 4
  %37 = icmp slt i32 %35, %36
  br i1 %37, label %38, label %312

38:                                               ; preds = %34
  %39 = load i32, i32* %7, align 4
  %40 = sext i32 %39 to i64
  %41 = getelementptr inbounds [100 x double], [100 x double]* %9, i64 0, i64 %40
  %42 = load double, double* %41, align 8
  %43 = load i32, i32* %7, align 4
  %44 = sext i32 %43 to i64
  %45 = getelementptr inbounds [100 x double], [100 x double]* %9, i64 0, i64 %44
  %46 = load double, double* %45, align 8
  %47 = fmul double %42, %46
  %48 = load i32, i32* %7, align 4
  %49 = sext i32 %48 to i64
  %50 = getelementptr inbounds [100 x double], [100 x double]* %8, i64 0, i64 %49
  %51 = load double, double* %50, align 8
  %52 = fmul double 4.000000e+00, %51
  %53 = load i32, i32* %7, align 4
  %54 = sext i32 %53 to i64
  %55 = getelementptr inbounds [100 x double], [100 x double]* %10, i64 0, i64 %54
  %56 = load double, double* %55, align 8
  %57 = fmul double %52, %56
  %58 = fsub double %47, %57
  %59 = fcmp ogt double %58, 0.000000e+00
  br i1 %59, label %60, label %142

60:                                               ; preds = %38
  %61 = load i32, i32* %7, align 4
  %62 = sext i32 %61 to i64
  %63 = getelementptr inbounds [100 x double], [100 x double]* %9, i64 0, i64 %62
  %64 = load double, double* %63, align 8
  %65 = fneg double %64
  %66 = load i32, i32* %7, align 4
  %67 = sext i32 %66 to i64
  %68 = getelementptr inbounds [100 x double], [100 x double]* %9, i64 0, i64 %67
  %69 = load double, double* %68, align 8
  %70 = load i32, i32* %7, align 4
  %71 = sext i32 %70 to i64
  %72 = getelementptr inbounds [100 x double], [100 x double]* %9, i64 0, i64 %71
  %73 = load double, double* %72, align 8
  %74 = fmul double %69, %73
  %75 = load i32, i32* %7, align 4
  %76 = sext i32 %75 to i64
  %77 = getelementptr inbounds [100 x double], [100 x double]* %8, i64 0, i64 %76
  %78 = load double, double* %77, align 8
  %79 = fmul double 4.000000e+00, %78
  %80 = load i32, i32* %7, align 4
  %81 = sext i32 %80 to i64
  %82 = getelementptr inbounds [100 x double], [100 x double]* %10, i64 0, i64 %81
  %83 = load double, double* %82, align 8
  %84 = fmul double %79, %83
  %85 = fsub double %74, %84
  %86 = call double @sqrt(double %85) #3
  %87 = fadd double %65, %86
  %88 = load i32, i32* %7, align 4
  %89 = sext i32 %88 to i64
  %90 = getelementptr inbounds [100 x double], [100 x double]* %8, i64 0, i64 %89
  %91 = load double, double* %90, align 8
  %92 = fmul double 2.000000e+00, %91
  %93 = fdiv double %87, %92
  %94 = load i32, i32* %7, align 4
  %95 = sext i32 %94 to i64
  %96 = getelementptr inbounds [100 x double], [100 x double]* %11, i64 0, i64 %95
  store double %93, double* %96, align 8
  %97 = load i32, i32* %7, align 4
  %98 = sext i32 %97 to i64
  %99 = getelementptr inbounds [100 x double], [100 x double]* %9, i64 0, i64 %98
  %100 = load double, double* %99, align 8
  %101 = fneg double %100
  %102 = load i32, i32* %7, align 4
  %103 = sext i32 %102 to i64
  %104 = getelementptr inbounds [100 x double], [100 x double]* %9, i64 0, i64 %103
  %105 = load double, double* %104, align 8
  %106 = load i32, i32* %7, align 4
  %107 = sext i32 %106 to i64
  %108 = getelementptr inbounds [100 x double], [100 x double]* %9, i64 0, i64 %107
  %109 = load double, double* %108, align 8
  %110 = fmul double %105, %109
  %111 = load i32, i32* %7, align 4
  %112 = sext i32 %111 to i64
  %113 = getelementptr inbounds [100 x double], [100 x double]* %8, i64 0, i64 %112
  %114 = load double, double* %113, align 8
  %115 = fmul double 4.000000e+00, %114
  %116 = load i32, i32* %7, align 4
  %117 = sext i32 %116 to i64
  %118 = getelementptr inbounds [100 x double], [100 x double]* %10, i64 0, i64 %117
  %119 = load double, double* %118, align 8
  %120 = fmul double %115, %119
  %121 = fsub double %110, %120
  %122 = call double @sqrt(double %121) #3
  %123 = fsub double %101, %122
  %124 = load i32, i32* %7, align 4
  %125 = sext i32 %124 to i64
  %126 = getelementptr inbounds [100 x double], [100 x double]* %8, i64 0, i64 %125
  %127 = load double, double* %126, align 8
  %128 = fmul double 2.000000e+00, %127
  %129 = fdiv double %123, %128
  %130 = load i32, i32* %7, align 4
  %131 = sext i32 %130 to i64
  %132 = getelementptr inbounds [100 x double], [100 x double]* %12, i64 0, i64 %131
  store double %129, double* %132, align 8
  %133 = load i32, i32* %7, align 4
  %134 = sext i32 %133 to i64
  %135 = getelementptr inbounds [100 x double], [100 x double]* %11, i64 0, i64 %134
  %136 = load double, double* %135, align 8
  %137 = load i32, i32* %7, align 4
  %138 = sext i32 %137 to i64
  %139 = getelementptr inbounds [100 x double], [100 x double]* %12, i64 0, i64 %138
  %140 = load double, double* %139, align 8
  %141 = call i32 (i8*, ...) @printf(i8* getelementptr inbounds ([19 x i8], [19 x i8]* @.str.2, i64 0, i64 0), double %136, double %140)
  br label %142

142:                                              ; preds = %60, %38
  %143 = load i32, i32* %7, align 4
  %144 = sext i32 %143 to i64
  %145 = getelementptr inbounds [100 x double], [100 x double]* %9, i64 0, i64 %144
  %146 = load double, double* %145, align 8
  %147 = load i32, i32* %7, align 4
  %148 = sext i32 %147 to i64
  %149 = getelementptr inbounds [100 x double], [100 x double]* %9, i64 0, i64 %148
  %150 = load double, double* %149, align 8
  %151 = fmul double %146, %150
  %152 = load i32, i32* %7, align 4
  %153 = sext i32 %152 to i64
  %154 = getelementptr inbounds [100 x double], [100 x double]* %8, i64 0, i64 %153
  %155 = load double, double* %154, align 8
  %156 = fmul double 4.000000e+00, %155
  %157 = load i32, i32* %7, align 4
  %158 = sext i32 %157 to i64
  %159 = getelementptr inbounds [100 x double], [100 x double]* %10, i64 0, i64 %158
  %160 = load double, double* %159, align 8
  %161 = fmul double %156, %160
  %162 = fsub double %151, %161
  %163 = fcmp oeq double %162, 0.000000e+00
  br i1 %163, label %164, label %209

164:                                              ; preds = %142
  %165 = load i32, i32* %7, align 4
  %166 = sext i32 %165 to i64
  %167 = getelementptr inbounds [100 x double], [100 x double]* %9, i64 0, i64 %166
  %168 = load double, double* %167, align 8
  %169 = fneg double %168
  %170 = load i32, i32* %7, align 4
  %171 = sext i32 %170 to i64
  %172 = getelementptr inbounds [100 x double], [100 x double]* %9, i64 0, i64 %171
  %173 = load double, double* %172, align 8
  %174 = load i32, i32* %7, align 4
  %175 = sext i32 %174 to i64
  %176 = getelementptr inbounds [100 x double], [100 x double]* %9, i64 0, i64 %175
  %177 = load double, double* %176, align 8
  %178 = fmul double %173, %177
  %179 = load i32, i32* %7, align 4
  %180 = sext i32 %179 to i64
  %181 = getelementptr inbounds [100 x double], [100 x double]* %8, i64 0, i64 %180
  %182 = load double, double* %181, align 8
  %183 = fmul double 4.000000e+00, %182
  %184 = load i32, i32* %7, align 4
  %185 = sext i32 %184 to i64
  %186 = getelementptr inbounds [100 x double], [100 x double]* %10, i64 0, i64 %185
  %187 = load double, double* %186, align 8
  %188 = fmul double %183, %187
  %189 = fsub double %178, %188
  %190 = call double @sqrt(double %189) #3
  %191 = fadd double %169, %190
  %192 = load i32, i32* %7, align 4
  %193 = sext i32 %192 to i64
  %194 = getelementptr inbounds [100 x double], [100 x double]* %8, i64 0, i64 %193
  %195 = load double, double* %194, align 8
  %196 = fmul double 2.000000e+00, %195
  %197 = fdiv double %191, %196
  %198 = load i32, i32* %7, align 4
  %199 = sext i32 %198 to i64
  %200 = getelementptr inbounds [100 x double], [100 x double]* %12, i64 0, i64 %199
  store double %197, double* %200, align 8
  %201 = load i32, i32* %7, align 4
  %202 = sext i32 %201 to i64
  %203 = getelementptr inbounds [100 x double], [100 x double]* %11, i64 0, i64 %202
  store double %197, double* %203, align 8
  %204 = load i32, i32* %7, align 4
  %205 = sext i32 %204 to i64
  %206 = getelementptr inbounds [100 x double], [100 x double]* %11, i64 0, i64 %205
  %207 = load double, double* %206, align 8
  %208 = call i32 (i8*, ...) @printf(i8* getelementptr inbounds ([13 x i8], [13 x i8]* @.str.3, i64 0, i64 0), double %207)
  br label %209

209:                                              ; preds = %164, %142
  %210 = load i32, i32* %7, align 4
  %211 = sext i32 %210 to i64
  %212 = getelementptr inbounds [100 x double], [100 x double]* %9, i64 0, i64 %211
  %213 = load double, double* %212, align 8
  %214 = load i32, i32* %7, align 4
  %215 = sext i32 %214 to i64
  %216 = getelementptr inbounds [100 x double], [100 x double]* %9, i64 0, i64 %215
  %217 = load double, double* %216, align 8
  %218 = fmul double %213, %217
  %219 = load i32, i32* %7, align 4
  %220 = sext i32 %219 to i64
  %221 = getelementptr inbounds [100 x double], [100 x double]* %8, i64 0, i64 %220
  %222 = load double, double* %221, align 8
  %223 = fmul double 4.000000e+00, %222
  %224 = load i32, i32* %7, align 4
  %225 = sext i32 %224 to i64
  %226 = getelementptr inbounds [100 x double], [100 x double]* %10, i64 0, i64 %225
  %227 = load double, double* %226, align 8
  %228 = fmul double %223, %227
  %229 = fsub double %218, %228
  %230 = fcmp olt double %229, 0.000000e+00
  br i1 %230, label %231, label %308

231:                                              ; preds = %209
  %232 = load i32, i32* %7, align 4
  %233 = sext i32 %232 to i64
  %234 = getelementptr inbounds [100 x double], [100 x double]* %9, i64 0, i64 %233
  %235 = load double, double* %234, align 8
  %236 = fneg double %235
  %237 = load i32, i32* %7, align 4
  %238 = sext i32 %237 to i64
  %239 = getelementptr inbounds [100 x double], [100 x double]* %9, i64 0, i64 %238
  %240 = load double, double* %239, align 8
  %241 = fmul double %236, %240
  %242 = load i32, i32* %7, align 4
  %243 = sext i32 %242 to i64
  %244 = getelementptr inbounds [100 x double], [100 x double]* %8, i64 0, i64 %243
  %245 = load double, double* %244, align 8
  %246 = fmul double 4.000000e+00, %245
  %247 = load i32, i32* %7, align 4
  %248 = sext i32 %247 to i64
  %249 = getelementptr inbounds [100 x double], [100 x double]* %10, i64 0, i64 %248
  %250 = load double, double* %249, align 8
  %251 = fmul double %246, %250
  %252 = fadd double %241, %251
  %253 = call double @sqrt(double %252) #3
  %254 = load i32, i32* %7, align 4
  %255 = sext i32 %254 to i64
  %256 = getelementptr inbounds [100 x double], [100 x double]* %8, i64 0, i64 %255
  %257 = load double, double* %256, align 8
  %258 = fmul double 2.000000e+00, %257
  %259 = fdiv double %253, %258
  %260 = load i32, i32* %7, align 4
  %261 = sext i32 %260 to i64
  %262 = getelementptr inbounds [100 x double], [100 x double]* %13, i64 0, i64 %261
  store double %259, double* %262, align 8
  %263 = load i32, i32* %7, align 4
  %264 = sext i32 %263 to i64
  %265 = getelementptr inbounds [100 x double], [100 x double]* %9, i64 0, i64 %264
  %266 = load double, double* %265, align 8
  %267 = fneg double %266
  %268 = load i32, i32* %7, align 4
  %269 = sext i32 %268 to i64
  %270 = getelementptr inbounds [100 x double], [100 x double]* %8, i64 0, i64 %269
  %271 = load double, double* %270, align 8
  %272 = fmul double 2.000000e+00, %271
  %273 = fdiv double %267, %272
  %274 = load i32, i32* %7, align 4
  %275 = sext i32 %274 to i64
  %276 = getelementptr inbounds [100 x double], [100 x double]* %11, i64 0, i64 %275
  store double %273, double* %276, align 8
  %277 = load i32, i32* %7, align 4
  %278 = sext i32 %277 to i64
  %279 = getelementptr inbounds [100 x double], [100 x double]* %9, i64 0, i64 %278
  %280 = load double, double* %279, align 8
  %281 = fneg double %280
  %282 = load i32, i32* %7, align 4
  %283 = sext i32 %282 to i64
  %284 = getelementptr inbounds [100 x double], [100 x double]* %8, i64 0, i64 %283
  %285 = load double, double* %284, align 8
  %286 = fmul double 2.000000e+00, %285
  %287 = fdiv double %281, %286
  %288 = load i32, i32* %7, align 4
  %289 = sext i32 %288 to i64
  %290 = getelementptr inbounds [100 x double], [100 x double]* %12, i64 0, i64 %289
  store double %287, double* %290, align 8
  %291 = load i32, i32* %7, align 4
  %292 = sext i32 %291 to i64
  %293 = getelementptr inbounds [100 x double], [100 x double]* %11, i64 0, i64 %292
  %294 = load double, double* %293, align 8
  %295 = load i32, i32* %7, align 4
  %296 = sext i32 %295 to i64
  %297 = getelementptr inbounds [100 x double], [100 x double]* %13, i64 0, i64 %296
  %298 = load double, double* %297, align 8
  %299 = load i32, i32* %7, align 4
  %300 = sext i32 %299 to i64
  %301 = getelementptr inbounds [100 x double], [100 x double]* %12, i64 0, i64 %300
  %302 = load double, double* %301, align 8
  %303 = load i32, i32* %7, align 4
  %304 = sext i32 %303 to i64
  %305 = getelementptr inbounds [100 x double], [100 x double]* %13, i64 0, i64 %304
  %306 = load double, double* %305, align 8
  %307 = call i32 (i8*, ...) @printf(i8* getelementptr inbounds ([33 x i8], [33 x i8]* @.str.4, i64 0, i64 0), double %294, double %298, double %302, double %306)
  br label %308

308:                                              ; preds = %231, %209
  br label %309

309:                                              ; preds = %308
  %310 = load i32, i32* %7, align 4
  %311 = add nsw i32 %310, 1
  store i32 %311, i32* %7, align 4
  br label %34

312:                                              ; preds = %34
  ret i32 0
}

declare dso_local i32 @__isoc99_scanf(i8*, ...) #1

; Function Attrs: nounwind
declare dso_local double @sqrt(double) #2

declare dso_local i32 @printf(i8*, ...) #1


!llvm.module.flags = !{!0}
!llvm.ident = !{!1}

!0 = !{i32 1, !"wchar_size", i32 4}
!1 = !{!"clang version 10.0.0-4ubuntu1 "}
